target datalayout = "e-m:e-p270:32:32-p271:32:32-p272:64:64-i64:64-i128:128-f80:128-n8:16:32:64-S128"
target triple = "x86_64-pc-linux-gnu"

%struct.BTBuildState = type { i8, i8, i8, ptr, ptr, ptr, double, ptr }
%struct.BTSpool = type { ptr, ptr, ptr, i8, i8 }

; Function Attrs: nounwind uwtable
define internal void @_bt_spool(ptr noundef %0, ptr noundef %1, ptr noundef %2, ptr noundef %3) #0 {
  %5 = alloca ptr, align 8
  %6 = alloca ptr, align 8
  %7 = alloca ptr, align 8
  %8 = alloca ptr, align 8
  store ptr %0, ptr %5, align 8
  store ptr %1, ptr %6, align 8
  store ptr %2, ptr %7, align 8
  store ptr %3, ptr %8, align 8
  %9 = load ptr, ptr %5, align 8
  %10 = getelementptr inbounds nuw %struct.BTSpool, ptr %9, i32 0, i32 0
  %11 = load ptr, ptr %10, align 8
  %12 = load ptr, ptr %5, align 8
  %13 = getelementptr inbounds nuw %struct.BTSpool, ptr %12, i32 0, i32 2
  %14 = load ptr, ptr %13, align 8
  %15 = load ptr, ptr %6, align 8
  %16 = load ptr, ptr %7, align 8
  %17 = load ptr, ptr %8, align 8
  call void @tuplesort_putindextuplevalues(ptr noundef %11, ptr noundef %14, ptr noundef %15, ptr noundef %16, ptr noundef %17)
  ret void
}

; Function Attrs: nounwind uwtable
define internal void @_bt_build_callback(ptr noundef %0, ptr noundef %1, ptr noundef %2, ptr noundef %3, i1 noundef zeroext %4, ptr noundef %5) #0 {
  %7 = alloca ptr, align 8
  %8 = alloca ptr, align 8
  %9 = alloca ptr, align 8
  %10 = alloca ptr, align 8
  %11 = alloca i8, align 1
  %12 = alloca ptr, align 8
  %13 = alloca ptr, align 8
  store ptr %0, ptr %7, align 8
  store ptr %1, ptr %8, align 8
  store ptr %2, ptr %9, align 8
  store ptr %3, ptr %10, align 8
  %14 = zext i1 %4 to i8
  store i8 %14, ptr %11, align 1
  store ptr %5, ptr %12, align 8
  call void @llvm.lifetime.start.p0(i64 8, ptr %13) #8
  %15 = load ptr, ptr %12, align 8
  store ptr %15, ptr %13, align 8
  %16 = load i8, ptr %11, align 1, !range !4, !noundef !5
  %17 = trunc i8 %16 to i1
  br i1 %17, label %23, label %18

18:                                               ; preds = %6
  %19 = load ptr, ptr %13, align 8
  %20 = getelementptr inbounds nuw %struct.BTBuildState, ptr %19, i32 0, i32 5
  %21 = load ptr, ptr %20, align 8
  %22 = icmp eq ptr %21, null
  br i1 %22, label %23, label %30

23:                                               ; preds = %18, %6
  %24 = load ptr, ptr %13, align 8
  %25 = getelementptr inbounds nuw %struct.BTBuildState, ptr %24, i32 0, i32 4
  %26 = load ptr, ptr %25, align 8
  %27 = load ptr, ptr %8, align 8
  %28 = load ptr, ptr %9, align 8
  %29 = load ptr, ptr %10, align 8
  call void @_bt_spool(ptr noundef %26, ptr noundef %27, ptr noundef %28, ptr noundef %29)
  br label %39

30:                                               ; preds = %18
  %31 = load ptr, ptr %13, align 8
  %32 = getelementptr inbounds nuw %struct.BTBuildState, ptr %31, i32 0, i32 2
  store i8 1, ptr %32, align 2
  %33 = load ptr, ptr %13, align 8
  %34 = getelementptr inbounds nuw %struct.BTBuildState, ptr %33, i32 0, i32 5
  %35 = load ptr, ptr %34, align 8
  %36 = load ptr, ptr %8, align 8
  %37 = load ptr, ptr %9, align 8
  %38 = load ptr, ptr %10, align 8
  call void @_bt_spool(ptr noundef %35, ptr noundef %36, ptr noundef %37, ptr noundef %38)
  br label %39

39:                                               ; preds = %30, %23
  %40 = load ptr, ptr %13, align 8
  %41 = getelementptr inbounds nuw %struct.BTBuildState, ptr %40, i32 0, i32 6
  %42 = load double, ptr %41, align 8
  %43 = fadd double %42, 1.000000e+00
  store double %43, ptr %41, align 8
  call void @llvm.lifetime.end.p0(i64 8, ptr %13) #8
  ret void
}