; Function Attrs: nounwind uwtable
define internal void @_bt_build_callback(ptr readnone captures(none) %0, ptr noundef %1, ptr noundef %2, ptr noundef %3, i1 noundef zeroext %4, ptr noundef captures(none) %5) #0 {
  br i1 %4, label %11, label %7

7:                                                ; preds = %6
  %8 = getelementptr inbounds nuw i8, ptr %5, i64 24
  %9 = load ptr, ptr %8, align 8
  %10 = icmp eq ptr %9, null
  br i1 %10, label %11, label %14

11:                                               ; preds = %7, %6
  %12 = getelementptr inbounds nuw i8, ptr %5, i64 16
  %13 = load ptr, ptr %12, align 8
  br label %16

14:                                               ; preds = %7
  %15 = getelementptr inbounds nuw i8, ptr %5, i64 2
  store i8 1, ptr %15, align 2
  br label %16

16:                                               ; preds = %14, %11
  %.sink = phi ptr [ %9, %14 ], [ %13, %11 ]
  %.val13 = load ptr, ptr %.sink, align 8
  %17 = getelementptr i8, ptr %.sink, i64 16
  %.val14 = load ptr, ptr %17, align 8
  tail call void @tuplesort_putindextuplevalues(ptr noundef %.val13, ptr noundef %.val14, ptr noundef %1, ptr noundef %2, ptr noundef %3) #10
  %18 = getelementptr inbounds nuw i8, ptr %5, i64 32
  %19 = load double, ptr %18, align 8
  %20 = fadd double %19, 1.000000e+00
  store double %20, ptr %18, align 8
  ret void
}